; Function Attrs: mustprogress uwtable
define void @_ZN6google8protobuf8internal26UnknownFieldSerializerLiteEPKhjjjPNS0_2io17CodedOutputStreamE(ptr noundef readonly captures(none) %0, i32 noundef %1, i32 noundef %2, i32 noundef %3, ptr noundef %4) local_unnamed_addr #4 {
  %6 = zext i32 %1 to i64
  %7 = getelementptr inbounds nuw i8, ptr %0, i64 %6
  %8 = load ptr, ptr %7, align 8, !tbaa !148
  %9 = ptrtoint ptr %8 to i64
  %10 = and i64 %9, 1
  %.not = icmp eq i64 %10, 0
  br i1 %.not, label %15, label %11, !prof !41

11:                                               ; preds = %5
  %12 = and i64 %9, -2
  %13 = inttoptr i64 %12 to ptr
  %14 = getelementptr inbounds nuw i8, ptr %13, i64 8
  br label %_ZNK6google8protobuf8internal16InternalMetadata14unknown_fieldsINSt7__cxx1112basic_stringIcSt11char_traitsIcESaIcEEEEERKT_PFSC_vE.exit

15:                                               ; preds = %5
  %16 = load atomic i8, ptr @_ZN6google8protobuf8internal28init_protobuf_defaults_stateE acquire, align 1
  %17 = trunc i8 %16 to i1
  br i1 %17, label %_ZNK6google8protobuf8internal16InternalMetadata14unknown_fieldsINSt7__cxx1112basic_stringIcSt11char_traitsIcESaIcEEEEERKT_PFSC_vE.exit, label %18, !prof !41

18:                                               ; preds = %15
  tail call void @_ZN6google8protobuf8internal24InitProtobufDefaultsSlowEv()
  br label %_ZNK6google8protobuf8internal16InternalMetadata14unknown_fieldsINSt7__cxx1112basic_stringIcSt11char_traitsIcESaIcEEEEERKT_PFSC_vE.exit

_ZNK6google8protobuf8internal16InternalMetadata14unknown_fieldsINSt7__cxx1112basic_stringIcSt11char_traitsIcESaIcEEEEERKT_PFSC_vE.exit: ; preds = %18, %15, %11
  %.0.i = phi ptr [ %14, %11 ], [ @_ZN6google8protobuf8internal26fixed_address_empty_stringE, %15 ], [ @_ZN6google8protobuf8internal26fixed_address_empty_stringE, %18 ]
  %19 = load ptr, ptr %.0.i, align 8, !tbaa !6
  %20 = getelementptr inbounds nuw i8, ptr %.0.i, i64 8
  %21 = load i64, ptr %20, align 8, !tbaa !13
  %22 = getelementptr inbounds nuw i8, ptr %4, i64 64
  %23 = load ptr, ptr %22, align 8, !tbaa !17
  %24 = load ptr, ptr %4, align 8, !tbaa !40
  %25 = ptrtoint ptr %24 to i64
  %26 = ptrtoint ptr %23 to i64
  %27 = sub i64 %25, %26
  %sext.i = shl i64 %21, 32
  %28 = ashr exact i64 %sext.i, 32
  %29 = icmp slt i64 %27, %28
  br i1 %29, label %30, label %33, !prof !42

30:                                               ; preds = %_ZNK6google8protobuf8internal16InternalMetadata14unknown_fieldsINSt7__cxx1112basic_stringIcSt11char_traitsIcESaIcEEEEERKT_PFSC_vE.exit
  %31 = trunc i64 %21 to i32
  %32 = tail call noundef ptr @_ZN6google8protobuf2io19EpsCopyOutputStream16WriteRawFallbackEPKviPh(ptr noundef nonnull align 8 dereferenceable(80) %4, ptr noundef %19, i32 noundef %31, ptr noundef %23)
  br label %_ZN6google8protobuf2io17CodedOutputStream11WriteStringERKNSt7__cxx1112basic_stringIcSt11char_traitsIcESaIcEEE.exit

33:                                               ; preds = %_ZNK6google8protobuf8internal16InternalMetadata14unknown_fieldsINSt7__cxx1112basic_stringIcSt11char_traitsIcESaIcEEEEERKT_PFSC_vE.exit
  tail call void @llvm.memcpy.p0.p0.i64(ptr align 1 %23, ptr align 1 %19, i64 %28, i1 false)
  %34 = getelementptr inbounds i8, ptr %23, i64 %28
  br label %_ZN6google8protobuf2io17CodedOutputStream11WriteStringERKNSt7__cxx1112basic_stringIcSt11char_traitsIcESaIcEEE.exit

_ZN6google8protobuf2io17CodedOutputStream11WriteStringERKNSt7__cxx1112basic_stringIcSt11char_traitsIcESaIcEEE.exit: ; preds = %30, %33
  %.0.i.i.i = phi ptr [ %32, %30 ], [ %34, %33 ]
  store ptr %.0.i.i.i, ptr %22, align 8, !tbaa !17
  ret void
}